; Function Attrs: mustprogress nounwind uwtable
define hidden void @_ZN19ConcurrentLocksDump17dump_at_safepointEv(ptr nocapture noundef nonnull align 8 dereferenceable(17) %0) local_unnamed_addr #0 align 2 {
  %2 = tail call noundef ptr @_ZN6AnyObjnwEm8MEMFLAGS(i64 noundef 24, i8 noundef zeroext 23) #12
  %3 = icmp eq ptr %2, null
  br i1 %3, label %9, label %4

4:                                                ; preds = %1
  %5 = tail call noundef ptr @_ZN27GrowableArrayCHeapAllocator8allocateEii8MEMFLAGS(i32 noundef 10, i32 noundef 8, i8 noundef zeroext 23) #12
  store i32 0, ptr %2, align 4
  %6 = getelementptr inbounds i8, ptr %2, i64 4
  store i32 10, ptr %6, align 4
  %7 = getelementptr inbounds i8, ptr %2, i64 8
  store ptr %5, ptr %7, align 8
  tail call void @llvm.memset.p0.i64(ptr noundef nonnull align 8 dereferenceable(80) %5, i8 0, i64 80, i1 false)
  %8 = getelementptr inbounds i8, ptr %2, i64 16
  store i64 47, ptr %8, align 8
  br label %9

9:                                                ; preds = %4, %1
  %10 = load ptr, ptr getelementptr inbounds (i8, ptr @_ZN9vmClasses8_klassesE, i64 800), align 8
  tail call void @_ZN14HeapInspection27find_instances_at_safepointEP5KlassP13GrowableArrayIP7oopDescE(ptr noundef %10, ptr noundef %2) #12
  %11 = load i32, ptr %2, align 4
  %12 = icmp sgt i32 %11, 0
  br i1 %12, label %.lr.ph.i, label %_ZN19ConcurrentLocksDump9build_mapEP13GrowableArrayIP7oopDescE.exit

.lr.ph.i:                                         ; preds = %9
  %13 = getelementptr inbounds i8, ptr %2, i64 8
  %wide.trip.count.i = zext nneg i32 %11 to i64
  br label %14

14:                                               ; preds = %21, %.lr.ph.i
  %indvars.iv.i = phi i64 [ 0, %.lr.ph.i ], [ %indvars.iv.next.i, %21 ]
  %15 = load ptr, ptr %13, align 8
  %16 = getelementptr inbounds ptr, ptr %15, i64 %indvars.iv.i
  %17 = load ptr, ptr %16, align 8
  %18 = tail call noundef ptr @_ZN54java_util_concurrent_locks_AbstractOwnableSynchronizer19get_owner_threadObjEP7oopDesc(ptr noundef %17) #12
  %.not.i = icmp eq ptr %18, null
  br i1 %.not.i, label %21, label %19

19:                                               ; preds = %14
  %20 = tail call noundef ptr @_ZN16java_lang_Thread6threadEP7oopDesc(ptr noundef nonnull %18) #12
  tail call void @_ZN19ConcurrentLocksDump8add_lockEP10JavaThreadP15instanceOopDesc(ptr noundef nonnull align 8 dereferenceable(17) %0, ptr noundef %20, ptr noundef %17)
  br label %21

21:                                               ; preds = %19, %14
  %indvars.iv.next.i = add nuw nsw i64 %indvars.iv.i, 1
  %exitcond.not.i = icmp eq i64 %indvars.iv.next.i, %wide.trip.count.i
  br i1 %exitcond.not.i, label %_ZN19ConcurrentLocksDump9build_mapEP13GrowableArrayIP7oopDescE.exit, label %14, !llvm.loop !33

_ZN19ConcurrentLocksDump9build_mapEP13GrowableArrayIP7oopDescE.exit: ; preds = %21, %9
  %22 = getelementptr inbounds i8, ptr %2, i64 16
  %23 = load i64, ptr %22, align 8
  %24 = and i64 %23, 1
  %.not.i5 = icmp eq i64 %24, 0
  br i1 %.not.i5, label %26, label %25

25:                                               ; preds = %_ZN19ConcurrentLocksDump9build_mapEP13GrowableArrayIP7oopDescE.exit
  store i32 0, ptr %2, align 4
  tail call void @_ZN26GrowableArrayWithAllocatorIP7oopDesc13GrowableArrayIS1_EE13shrink_to_fitEv(ptr noundef nonnull align 8 dereferenceable(16) %2)
  br label %26

26:                                               ; preds = %25, %_ZN19ConcurrentLocksDump9build_mapEP13GrowableArrayIP7oopDescE.exit
  tail call void @_ZN6AnyObjdlEPv(ptr noundef nonnull %2) #12
  ret void
}